target datalayout = "e-m:e-p270:32:32-p271:32:32-p272:64:64-i64:64-i128:128-f80:128-n8:16:32:64-S128"
target triple = "x86_64-pc-linux-gnu"

%struct._lv_dropdown_t = type { %struct._lv_obj_t, ptr, ptr, ptr, ptr, i32, i32, i32, i32, i8 }
%struct._lv_obj_t = type { ptr, ptr, ptr, ptr, ptr, %struct.lv_area_t, i32, i16, i16 }
%struct.lv_area_t = type { i32, i32, i32, i32 }

@lv_text_encoded_get_char_id = external constant ptr, align 8
@.str.2 = private unnamed_addr constant [2 x i8] c"\0A\00", align 1

; Function Attrs: nounwind uwtable
define void @lv_dropdown_add_option(ptr noundef %0, ptr noundef %1, i32 noundef %2) #0 {
  %4 = alloca ptr, align 8
  %5 = alloca ptr, align 8
  %6 = alloca i32, align 4
  %7 = alloca ptr, align 8
  %8 = alloca ptr, align 8
  %9 = alloca i32, align 4
  %10 = alloca i64, align 8
  %11 = alloca i64, align 8
  %12 = alloca i64, align 8
  %13 = alloca i32, align 4
  %14 = alloca i32, align 4
  %15 = alloca ptr, align 8
  store ptr %0, ptr %4, align 8, !tbaa !3
  store ptr %1, ptr %5, align 8, !tbaa !3
  store i32 %2, ptr %6, align 4, !tbaa !22
  br label %16

16:                                               ; preds = %3
  br label %17

17:                                               ; preds = %16
  br label %18

18:                                               ; preds = %17
  %19 = load ptr, ptr %5, align 8, !tbaa !3
  %20 = icmp ne ptr %19, null
  br i1 %20, label %25, label %21

21:                                               ; preds = %18
  br label %22

22:                                               ; preds = %21
  br label %23

23:                                               ; preds = %22
  br label %24

24:                                               ; preds = %23, %24
  br label %24

25:                                               ; preds = %18
  br label %26

26:                                               ; preds = %25
  call void @llvm.lifetime.start.p0(i64 8, ptr %7) #5
  %27 = load ptr, ptr %4, align 8, !tbaa !3
  store ptr %27, ptr %7, align 8, !tbaa !3
  %28 = load ptr, ptr %7, align 8, !tbaa !3
  %29 = getelementptr inbounds nuw %struct._lv_dropdown_t, ptr %28, i32 0, i32 9
  %30 = load i8, ptr %29, align 8
  %31 = lshr i8 %30, 4
  %32 = and i8 %31, 1
  %33 = zext i8 %32 to i32
  %34 = icmp ne i32 %33, 0
  br i1 %34, label %35, label %71

35:                                               ; preds = %26
  call void @llvm.lifetime.start.p0(i64 8, ptr %8) #5
  %36 = load ptr, ptr %7, align 8, !tbaa !3
  %37 = getelementptr inbounds nuw %struct._lv_dropdown_t, ptr %36, i32 0, i32 4
  %38 = load ptr, ptr %37, align 8, !tbaa !13
  store ptr %38, ptr %8, align 8, !tbaa !3
  %39 = load ptr, ptr %8, align 8, !tbaa !3
  %40 = call ptr @lv_strdup(ptr noundef %39)
  %41 = load ptr, ptr %7, align 8, !tbaa !3
  %42 = getelementptr inbounds nuw %struct._lv_dropdown_t, ptr %41, i32 0, i32 4
  store ptr %40, ptr %42, align 8, !tbaa !13
  br label %43

43:                                               ; preds = %35
  %44 = load ptr, ptr %7, align 8, !tbaa !3
  %45 = getelementptr inbounds nuw %struct._lv_dropdown_t, ptr %44, i32 0, i32 4
  %46 = load ptr, ptr %45, align 8, !tbaa !13
  %47 = icmp ne ptr %46, null
  br i1 %47, label %54, label %48

48:                                               ; preds = %43
  br label %49

49:                                               ; preds = %48
  br label %50

50:                                               ; preds = %49
  br label %51

51:                                               ; preds = %50
  br label %52

52:                                               ; preds = %53, %51
  br label %53

53:                                               ; preds = %52
  br label %52

54:                                               ; preds = %43
  br label %55

55:                                               ; preds = %54
  br label %56

56:                                               ; preds = %55
  %57 = load ptr, ptr %7, align 8, !tbaa !3
  %58 = getelementptr inbounds nuw %struct._lv_dropdown_t, ptr %57, i32 0, i32 4
  %59 = load ptr, ptr %58, align 8, !tbaa !13
  %60 = icmp eq ptr %59, null
  br i1 %60, label %61, label %62

61:                                               ; preds = %56
  store i32 1, ptr %9, align 4
  br label %68

62:                                               ; preds = %56
  %63 = load ptr, ptr %7, align 8, !tbaa !3
  %64 = getelementptr inbounds nuw %struct._lv_dropdown_t, ptr %63, i32 0, i32 9
  %65 = load i8, ptr %64, align 8
  %66 = and i8 %65, -17
  %67 = or i8 %66, 0
  store i8 %67, ptr %64, align 8
  store i32 0, ptr %9, align 4
  br label %68

68:                                               ; preds = %62, %61
  call void @llvm.lifetime.end.p0(i64 8, ptr %8) #5
  %69 = load i32, ptr %9, align 4
  switch i32 %69, label %241 [
    i32 0, label %70
  ]

70:                                               ; preds = %68
  br label %71

71:                                               ; preds = %70, %26
  call void @llvm.lifetime.start.p0(i64 8, ptr %10) #5
  %72 = load ptr, ptr %7, align 8, !tbaa !3
  %73 = getelementptr inbounds nuw %struct._lv_dropdown_t, ptr %72, i32 0, i32 4
  %74 = load ptr, ptr %73, align 8, !tbaa !13
  %75 = icmp eq ptr %74, null
  br i1 %75, label %76, label %77

76:                                               ; preds = %71
  br label %82

77:                                               ; preds = %71
  %78 = load ptr, ptr %7, align 8, !tbaa !3
  %79 = getelementptr inbounds nuw %struct._lv_dropdown_t, ptr %78, i32 0, i32 4
  %80 = load ptr, ptr %79, align 8, !tbaa !13
  %81 = call i64 @lv_strlen(ptr noundef %80)
  br label %82

82:                                               ; preds = %77, %76
  %83 = phi i64 [ 0, %76 ], [ %81, %77 ]
  store i64 %83, ptr %10, align 8, !tbaa !32
  call void @llvm.lifetime.start.p0(i64 8, ptr %11) #5
  %84 = load ptr, ptr %5, align 8, !tbaa !3
  %85 = call i64 @lv_strlen(ptr noundef %84)
  %86 = add i64 %85, 1
  store i64 %86, ptr %11, align 8, !tbaa !32
  call void @llvm.lifetime.start.p0(i64 8, ptr %12) #5
  %87 = load i64, ptr %11, align 8, !tbaa !32
  %88 = load i64, ptr %10, align 8, !tbaa !32
  %89 = add i64 %87, %88
  %90 = add i64 %89, 2
  store i64 %90, ptr %12, align 8, !tbaa !32
  %91 = load ptr, ptr %7, align 8, !tbaa !3
  %92 = getelementptr inbounds nuw %struct._lv_dropdown_t, ptr %91, i32 0, i32 4
  %93 = load ptr, ptr %92, align 8, !tbaa !13
  %94 = load i64, ptr %12, align 8, !tbaa !32
  %95 = add i64 %94, 1
  %96 = call ptr @lv_realloc(ptr noundef %93, i64 noundef %95)
  %97 = load ptr, ptr %7, align 8, !tbaa !3
  %98 = getelementptr inbounds nuw %struct._lv_dropdown_t, ptr %97, i32 0, i32 4
  store ptr %96, ptr %98, align 8, !tbaa !13
  br label %99

99:                                               ; preds = %82
  %100 = load ptr, ptr %7, align 8, !tbaa !3
  %101 = getelementptr inbounds nuw %struct._lv_dropdown_t, ptr %100, i32 0, i32 4
  %102 = load ptr, ptr %101, align 8, !tbaa !13
  %103 = icmp ne ptr %102, null
  br i1 %103, label %110, label %104

104:                                              ; preds = %99
  br label %105

105:                                              ; preds = %104
  br label %106

106:                                              ; preds = %105
  br label %107

107:                                              ; preds = %106
  br label %108

108:                                              ; preds = %109, %107
  br label %109

109:                                              ; preds = %108
  br label %108

110:                                              ; preds = %99
  br label %111

111:                                              ; preds = %110
  br label %112

112:                                              ; preds = %111
  %113 = load ptr, ptr %7, align 8, !tbaa !3
  %114 = getelementptr inbounds nuw %struct._lv_dropdown_t, ptr %113, i32 0, i32 4
  %115 = load ptr, ptr %114, align 8, !tbaa !13
  %116 = icmp eq ptr %115, null
  br i1 %116, label %117, label %118

117:                                              ; preds = %112
  store i32 1, ptr %9, align 4
  br label %240

118:                                              ; preds = %112
  %119 = load ptr, ptr %7, align 8, !tbaa !3
  %120 = getelementptr inbounds nuw %struct._lv_dropdown_t, ptr %119, i32 0, i32 4
  %121 = load ptr, ptr %120, align 8, !tbaa !13
  %122 = load i64, ptr %10, align 8, !tbaa !32
  %123 = getelementptr inbounds nuw i8, ptr %121, i64 %122
  store i8 0, ptr %123, align 1, !tbaa !29
  call void @llvm.lifetime.start.p0(i64 4, ptr %13) #5
  %124 = load i64, ptr %10, align 8, !tbaa !32
  %125 = trunc i64 %124 to i32
  store i32 %125, ptr %13, align 4, !tbaa !22
  %126 = load i32, ptr %6, align 4, !tbaa !22
  %127 = icmp ne i32 %126, 65535
  br i1 %127, label %128, label %162

128:                                              ; preds = %118
  call void @llvm.lifetime.start.p0(i64 4, ptr %14) #5
  store i32 0, ptr %14, align 4, !tbaa !22
  store i32 0, ptr %13, align 4, !tbaa !22
  br label %129

129:                                              ; preds = %158, %128
  %130 = load ptr, ptr %7, align 8, !tbaa !3
  %131 = getelementptr inbounds nuw %struct._lv_dropdown_t, ptr %130, i32 0, i32 4
  %132 = load ptr, ptr %131, align 8, !tbaa !13
  %133 = load i32, ptr %13, align 4, !tbaa !22
  %134 = zext i32 %133 to i64
  %135 = getelementptr inbounds nuw i8, ptr %132, i64 %134
  %136 = load i8, ptr %135, align 1, !tbaa !29
  %137 = sext i8 %136 to i32
  %138 = icmp ne i32 %137, 0
  br i1 %138, label %139, label %161

139:                                              ; preds = %129
  %140 = load i32, ptr %14, align 4, !tbaa !22
  %141 = load i32, ptr %6, align 4, !tbaa !22
  %142 = icmp eq i32 %140, %141
  br i1 %142, label %143, label %144

143:                                              ; preds = %139
  br label %161

144:                                              ; preds = %139
  %145 = load ptr, ptr %7, align 8, !tbaa !3
  %146 = getelementptr inbounds nuw %struct._lv_dropdown_t, ptr %145, i32 0, i32 4
  %147 = load ptr, ptr %146, align 8, !tbaa !13
  %148 = load i32, ptr %13, align 4, !tbaa !22
  %149 = zext i32 %148 to i64
  %150 = getelementptr inbounds nuw i8, ptr %147, i64 %149
  %151 = load i8, ptr %150, align 1, !tbaa !29
  %152 = sext i8 %151 to i32
  %153 = icmp eq i32 %152, 10
  br i1 %153, label %154, label %157

154:                                              ; preds = %144
  %155 = load i32, ptr %14, align 4, !tbaa !22
  %156 = add i32 %155, 1
  store i32 %156, ptr %14, align 4, !tbaa !22
  br label %157

157:                                              ; preds = %154, %144
  br label %158

158:                                              ; preds = %157
  %159 = load i32, ptr %13, align 4, !tbaa !22
  %160 = add i32 %159, 1
  store i32 %160, ptr %13, align 4, !tbaa !22
  br label %129, !llvm.loop !35

161:                                              ; preds = %143, %129
  call void @llvm.lifetime.end.p0(i64 4, ptr %14) #5
  br label %162

162:                                              ; preds = %161, %118
  %163 = load i32, ptr %13, align 4, !tbaa !22
  %164 = icmp ugt i32 %163, 0
  br i1 %164, label %165, label %182

165:                                              ; preds = %162
  %166 = load i32, ptr %6, align 4, !tbaa !22
  %167 = load ptr, ptr %7, align 8, !tbaa !3
  %168 = getelementptr inbounds nuw %struct._lv_dropdown_t, ptr %167, i32 0, i32 5
  %169 = load i32, ptr %168, align 8, !tbaa !19
  %170 = icmp uge i32 %166, %169
  br i1 %170, label %171, label %182

171:                                              ; preds = %165
  %172 = load ptr, ptr %7, align 8, !tbaa !3
  %173 = getelementptr inbounds nuw %struct._lv_dropdown_t, ptr %172, i32 0, i32 4
  %174 = load ptr, ptr %173, align 8, !tbaa !13
  %175 = load ptr, ptr @lv_text_encoded_get_char_id, align 8, !tbaa !3
  %176 = load ptr, ptr %7, align 8, !tbaa !3
  %177 = getelementptr inbounds nuw %struct._lv_dropdown_t, ptr %176, i32 0, i32 4
  %178 = load ptr, ptr %177, align 8, !tbaa !13
  %179 = load i32, ptr %13, align 4, !tbaa !22
  %180 = add i32 %179, 1
  store i32 %180, ptr %13, align 4, !tbaa !22
  %181 = call i32 %175(ptr noundef %178, i32 noundef %179)
  call void @lv_text_ins(ptr noundef %174, i32 noundef %181, ptr noundef @.str.2)
  br label %182

182:                                              ; preds = %171, %165, %162
  call void @llvm.lifetime.start.p0(i64 8, ptr %15) #5
  %183 = load i64, ptr %11, align 8, !tbaa !32
  %184 = add i64 %183, 2
  %185 = call ptr @lv_malloc(i64 noundef %184)
  store ptr %185, ptr %15, align 8, !tbaa !3
  br label %186

186:                                              ; preds = %182
  %187 = load ptr, ptr %15, align 8, !tbaa !3
  %188 = icmp ne ptr %187, null
  br i1 %188, label %195, label %189

189:                                              ; preds = %186
  br label %190

190:                                              ; preds = %189
  br label %191

191:                                              ; preds = %190
  br label %192

192:                                              ; preds = %191
  br label %193

193:                                              ; preds = %194, %192
  br label %194

194:                                              ; preds = %193
  br label %193

195:                                              ; preds = %186
  br label %196

196:                                              ; preds = %195
  br label %197

197:                                              ; preds = %196
  %198 = load ptr, ptr %15, align 8, !tbaa !3
  %199 = icmp eq ptr %198, null
  br i1 %199, label %200, label %201

200:                                              ; preds = %197
  store i32 1, ptr %9, align 4
  br label %239

201:                                              ; preds = %197
  %202 = load ptr, ptr %15, align 8, !tbaa !3
  %203 = load ptr, ptr %5, align 8, !tbaa !3
  %204 = call ptr @lv_strcpy(ptr noundef %202, ptr noundef %203)
  %205 = load i32, ptr %6, align 4, !tbaa !22
  %206 = load ptr, ptr %7, align 8, !tbaa !3
  %207 = getelementptr inbounds nuw %struct._lv_dropdown_t, ptr %206, i32 0, i32 5
  %208 = load i32, ptr %207, align 8, !tbaa !19
  %209 = icmp ult i32 %205, %208
  br i1 %209, label %210, label %213

210:                                              ; preds = %201
  %211 = load ptr, ptr %15, align 8, !tbaa !3
  %212 = call ptr @lv_strcat(ptr noundef %211, ptr noundef @.str.2)
  br label %213

213:                                              ; preds = %210, %201
  %214 = load ptr, ptr %7, align 8, !tbaa !3
  %215 = getelementptr inbounds nuw %struct._lv_dropdown_t, ptr %214, i32 0, i32 4
  %216 = load ptr, ptr %215, align 8, !tbaa !13
  %217 = load ptr, ptr @lv_text_encoded_get_char_id, align 8, !tbaa !3
  %218 = load ptr, ptr %7, align 8, !tbaa !3
  %219 = getelementptr inbounds nuw %struct._lv_dropdown_t, ptr %218, i32 0, i32 4
  %220 = load ptr, ptr %219, align 8, !tbaa !13
  %221 = load i32, ptr %13, align 4, !tbaa !22
  %222 = call i32 %217(ptr noundef %220, i32 noundef %221)
  %223 = load ptr, ptr %15, align 8, !tbaa !3
  call void @lv_text_ins(ptr noundef %216, i32 noundef %222, ptr noundef %223)
  %224 = load ptr, ptr %15, align 8, !tbaa !3
  call void @lv_free(ptr noundef %224)
  %225 = load ptr, ptr %7, align 8, !tbaa !3
  %226 = getelementptr inbounds nuw %struct._lv_dropdown_t, ptr %225, i32 0, i32 5
  %227 = load i32, ptr %226, align 8, !tbaa !19
  %228 = add i32 %227, 1
  store i32 %228, ptr %226, align 8, !tbaa !19
  %229 = load ptr, ptr %4, align 8, !tbaa !3
  call void @lv_obj_invalidate(ptr noundef %229)
  %230 = load ptr, ptr %7, align 8, !tbaa !3
  %231 = getelementptr inbounds nuw %struct._lv_dropdown_t, ptr %230, i32 0, i32 1
  %232 = load ptr, ptr %231, align 8, !tbaa !7
  %233 = icmp ne ptr %232, null
  br i1 %233, label %234, label %238

234:                                              ; preds = %213
  %235 = load ptr, ptr %7, align 8, !tbaa !3
  %236 = getelementptr inbounds nuw %struct._lv_dropdown_t, ptr %235, i32 0, i32 1
  %237 = load ptr, ptr %236, align 8, !tbaa !7
  call void @lv_obj_invalidate(ptr noundef %237)
  br label %238

238:                                              ; preds = %234, %213
  store i32 0, ptr %9, align 4
  br label %239

239:                                              ; preds = %238, %200
  call void @llvm.lifetime.end.p0(i64 8, ptr %15) #5
  call void @llvm.lifetime.end.p0(i64 4, ptr %13) #5
  br label %240

240:                                              ; preds = %239, %117
  call void @llvm.lifetime.end.p0(i64 8, ptr %12) #5
  call void @llvm.lifetime.end.p0(i64 8, ptr %11) #5
  call void @llvm.lifetime.end.p0(i64 8, ptr %10) #5
  br label %241

241:                                              ; preds = %240, %68
  call void @llvm.lifetime.end.p0(i64 8, ptr %7) #5
  %242 = load i32, ptr %9, align 4
  switch i32 %242, label %244 [
    i32 0, label %243
    i32 1, label %243
  ]

243:                                              ; preds = %241, %241
  ret void

244:                                              ; preds = %241
  unreachable
}