; Function Attrs: nounwind uwtable
define void @lv_dropdown_add_option(ptr noundef %0, ptr noundef %1, i32 noundef %2) local_unnamed_addr #0 {
  %.not = icmp eq ptr %1, null
  br i1 %.not, label %.preheader, label %4

.preheader:                                       ; preds = %3, %.preheader
  br label %.preheader

4:                                                ; preds = %3
  %5 = getelementptr inbounds nuw i8, ptr %0, i64 112
  %6 = load i8, ptr %5, align 8
  %7 = and i8 %6, 16
  %.not64 = icmp eq i8 %7, 0
  %.phi.trans.insert = getelementptr inbounds nuw i8, ptr %0, i64 88
  %.pre = load ptr, ptr %.phi.trans.insert, align 8, !tbaa !12
  br i1 %.not64, label %13, label %8

8:                                                ; preds = %4
  %9 = tail call ptr @lv_strdup(ptr noundef %.pre) #7
  store ptr %9, ptr %.phi.trans.insert, align 8, !tbaa !12
  %.not65 = icmp eq ptr %9, null
  br i1 %.not65, label %.preheader76, label %.thread

.preheader76:                                     ; preds = %8, %.preheader76
  br label %.preheader76

.thread:                                          ; preds = %8
  %10 = load i8, ptr %5, align 8
  %11 = and i8 %10, -17
  store i8 %11, ptr %5, align 8
  %12 = getelementptr inbounds nuw i8, ptr %0, i64 88
  br label %16

13:                                               ; preds = %4
  %14 = getelementptr inbounds nuw i8, ptr %0, i64 88
  %15 = icmp eq ptr %.pre, null
  br i1 %15, label %20, label %16

16:                                               ; preds = %.thread, %13
  %17 = phi ptr [ %12, %.thread ], [ %14, %13 ]
  %18 = phi ptr [ %9, %.thread ], [ %.pre, %13 ]
  %19 = tail call i64 @lv_strlen(ptr noundef nonnull %18) #7
  br label %20

20:                                               ; preds = %13, %16
  %21 = phi ptr [ %17, %16 ], [ %14, %13 ]
  %22 = phi i64 [ %19, %16 ], [ 0, %13 ]
  %23 = tail call i64 @lv_strlen(ptr noundef nonnull %1) #7
  %24 = load ptr, ptr %21, align 8, !tbaa !12
  %25 = add i64 %22, 4
  %26 = add i64 %25, %23
  %27 = tail call ptr @lv_realloc(ptr noundef %24, i64 noundef %26) #7
  store ptr %27, ptr %21, align 8, !tbaa !12
  %.not66 = icmp eq ptr %27, null
  br i1 %.not66, label %.preheader73, label %28

.preheader73:                                     ; preds = %20, %.preheader73
  br label %.preheader73

28:                                               ; preds = %20
  %29 = getelementptr inbounds nuw i8, ptr %27, i64 %22
  store i8 0, ptr %29, align 1, !tbaa !19
  %30 = trunc i64 %22 to i32
  %.not67 = icmp eq i32 %2, 65535
  br i1 %.not67, label %.loopexit, label %.preheader75

.preheader75:                                     ; preds = %28
  %31 = load ptr, ptr %21, align 8, !tbaa !12
  %32 = load i8, ptr %31, align 1, !tbaa !19
  %.not6877 = icmp eq i8 %32, 0
  %33 = icmp eq i32 %2, 0
  %or.cond78 = or i1 %.not6877, %33
  br i1 %or.cond78, label %.loopexit.thread, label %.lr.ph

.lr.ph:                                           ; preds = %.preheader75, %.lr.ph
  %34 = phi i8 [ %40, %.lr.ph ], [ %32, %.preheader75 ]
  %.05480 = phi i32 [ %spec.select, %.lr.ph ], [ 0, %.preheader75 ]
  %.15679 = phi i32 [ %37, %.lr.ph ], [ 0, %.preheader75 ]
  %35 = icmp eq i8 %34, 10
  %36 = zext i1 %35 to i32
  %spec.select = add i32 %.05480, %36
  %37 = add i32 %.15679, 1
  %38 = zext i32 %37 to i64
  %39 = getelementptr inbounds nuw i8, ptr %31, i64 %38
  %40 = load i8, ptr %39, align 1, !tbaa !19
  %.not68 = icmp eq i8 %40, 0
  %41 = icmp eq i32 %spec.select, %2
  %or.cond = select i1 %.not68, i1 true, i1 %41
  br i1 %or.cond, label %.loopexit, label %.lr.ph, !llvm.loop !30

.loopexit:                                        ; preds = %.lr.ph, %28
  %.055 = phi i32 [ %30, %28 ], [ %37, %.lr.ph ]
  %.not69 = icmp eq i32 %.055, 0
  br i1 %.not69, label %.loopexit.thread, label %42

42:                                               ; preds = %.loopexit
  %43 = getelementptr inbounds nuw i8, ptr %0, i64 96
  %44 = load i32, ptr %43, align 8, !tbaa !18
  %.not70 = icmp ult i32 %2, %44
  br i1 %.not70, label %.loopexit.thread, label %45

45:                                               ; preds = %42
  %46 = load ptr, ptr %21, align 8, !tbaa !12
  %47 = load ptr, ptr @lv_text_encoded_get_char_id, align 8, !tbaa !31
  %48 = add i32 %.055, 1
  %49 = tail call i32 %47(ptr noundef %46, i32 noundef %.055) #7
  tail call void @lv_text_ins(ptr noundef %46, i32 noundef %49, ptr noundef nonnull @.str.2) #7
  br label %.loopexit.thread

.loopexit.thread:                                 ; preds = %.preheader75, %45, %42, %.loopexit
  %.2 = phi i32 [ %48, %45 ], [ %.055, %42 ], [ 0, %.loopexit ], [ 0, %.preheader75 ]
  %50 = add i64 %23, 3
  %51 = tail call ptr @lv_malloc(i64 noundef %50) #7
  %.not71 = icmp eq ptr %51, null
  br i1 %.not71, label %.preheader74, label %52

.preheader74:                                     ; preds = %.loopexit.thread, %.preheader74
  br label %.preheader74

52:                                               ; preds = %.loopexit.thread
  %53 = tail call ptr @lv_strcpy(ptr noundef nonnull %51, ptr noundef nonnull %1) #7
  %54 = getelementptr inbounds nuw i8, ptr %0, i64 96
  %55 = load i32, ptr %54, align 8, !tbaa !18
  %56 = icmp ult i32 %2, %55
  br i1 %56, label %57, label %59

57:                                               ; preds = %52
  %58 = tail call ptr @lv_strcat(ptr noundef nonnull %51, ptr noundef nonnull @.str.2) #7
  br label %59

59:                                               ; preds = %57, %52
  %60 = load ptr, ptr %21, align 8, !tbaa !12
  %61 = load ptr, ptr @lv_text_encoded_get_char_id, align 8, !tbaa !31
  %62 = tail call i32 %61(ptr noundef %60, i32 noundef %.2) #7
  tail call void @lv_text_ins(ptr noundef %60, i32 noundef %62, ptr noundef nonnull %51) #7
  tail call void @lv_free(ptr noundef nonnull %51) #7
  %63 = load i32, ptr %54, align 8, !tbaa !18
  %64 = add i32 %63, 1
  store i32 %64, ptr %54, align 8, !tbaa !18
  tail call void @lv_obj_invalidate(ptr noundef nonnull %0) #7
  %65 = getelementptr inbounds nuw i8, ptr %0, i64 64
  %66 = load ptr, ptr %65, align 8, !tbaa !3
  %.not72 = icmp eq ptr %66, null
  br i1 %.not72, label %68, label %67

67:                                               ; preds = %59
  tail call void @lv_obj_invalidate(ptr noundef nonnull %66) #7
  br label %68

68:                                               ; preds = %59, %67
  ret void
}